target datalayout = "e-m:e-p270:32:32-p271:32:32-p272:64:64-i64:64-i128:128-f80:128-n8:16:32:64-S128"
target triple = "x86_64-pc-linux-gnu"

%struct.Point = type { double, double }
%struct.FunctionCallInfoBaseData = type { ptr, ptr, ptr, i32, i8, i16, [0 x %struct.NullableDatum] }
%struct.NullableDatum = type { i64, i8 }
%struct.WIDGET = type { %struct.Point, double }

@.str.1 = private unnamed_addr constant [39 x i8] c"invalid input syntax for type %s: \22%s\22\00", align 1
@.str.2 = private unnamed_addr constant [7 x i8] c"widget\00", align 1
@.str.3 = private unnamed_addr constant [10 x i8] c"regress.c\00", align 1
@__func__.widget_in = private unnamed_addr constant [10 x i8] c"widget_in\00", align 1

; Function Attrs: inlinehint nounwind uwtable
define internal ptr @DatumGetPointer(i64 noundef %0) #2 {
  %2 = alloca i64, align 8
  store i64 %0, ptr %2, align 8
  %3 = load i64, ptr %2, align 8
  %4 = inttoptr i64 %3 to ptr
  ret ptr %4
}

; Function Attrs: inlinehint nounwind uwtable
define internal i64 @PointerGetDatum(ptr noundef %0) #2 {
  %2 = alloca ptr, align 8
  store ptr %0, ptr %2, align 8
  %3 = load ptr, ptr %2, align 8
  %4 = ptrtoint ptr %3 to i64
  ret i64 %4
}

; Function Attrs: inlinehint nounwind willreturn memory(read) uwtable
define available_externally double @atof(ptr noundef nonnull %0) #5 {
  %2 = alloca ptr, align 8
  store ptr %0, ptr %2, align 8
  %3 = load ptr, ptr %2, align 8
  %4 = call double @strtod(ptr noundef %3, ptr noundef null) #13
  ret double %4
}

; Function Attrs: inlinehint nounwind uwtable
define internal ptr @DatumGetCString(i64 noundef %0) #2 {
  %2 = alloca i64, align 8
  store i64 %0, ptr %2, align 8
  %3 = load i64, ptr %2, align 8
  %4 = call ptr @DatumGetPointer(i64 noundef %3)
  ret ptr %4
}

; Function Attrs: nounwind uwtable
define i64 @widget_in(ptr noundef %0) #0 {
  %2 = alloca ptr, align 8
  %3 = alloca ptr, align 8
  %4 = alloca ptr, align 8
  %5 = alloca [3 x ptr], align 16
  %6 = alloca i32, align 4
  %7 = alloca ptr, align 8
  store ptr %0, ptr %2, align 8
  call void @llvm.lifetime.start.p0(i64 8, ptr %3) #13
  %8 = load ptr, ptr %2, align 8
  %9 = getelementptr inbounds nuw %struct.FunctionCallInfoBaseData, ptr %8, i32 0, i32 6
  %10 = getelementptr inbounds [0 x %struct.NullableDatum], ptr %9, i64 0, i64 0
  %11 = getelementptr inbounds nuw %struct.NullableDatum, ptr %10, i32 0, i32 0
  %12 = load i64, ptr %11, align 8
  %13 = call ptr @DatumGetCString(i64 noundef %12)
  store ptr %13, ptr %3, align 8
  call void @llvm.lifetime.start.p0(i64 8, ptr %4) #13
  call void @llvm.lifetime.start.p0(i64 24, ptr %5) #13
  call void @llvm.lifetime.start.p0(i64 4, ptr %6) #13
  call void @llvm.lifetime.start.p0(i64 8, ptr %7) #13
  store i32 0, ptr %6, align 4
  %14 = load ptr, ptr %3, align 8
  store ptr %14, ptr %4, align 8
  br label %15

15:                                               ; preds = %51, %1
  %16 = load ptr, ptr %4, align 8
  %17 = load i8, ptr %16, align 1
  %18 = sext i8 %17 to i32
  %19 = icmp ne i32 %18, 0
  br i1 %19, label %20, label %28

20:                                               ; preds = %15
  %21 = load i32, ptr %6, align 4
  %22 = icmp slt i32 %21, 3
  br i1 %22, label %23, label %28

23:                                               ; preds = %20
  %24 = load ptr, ptr %4, align 8
  %25 = load i8, ptr %24, align 1
  %26 = sext i8 %25 to i32
  %27 = icmp ne i32 %26, 41
  br label %28

28:                                               ; preds = %23, %20, %15
  %29 = phi i1 [ false, %20 ], [ false, %15 ], [ %27, %23 ]
  br i1 %29, label %30, label %54

30:                                               ; preds = %28
  %31 = load ptr, ptr %4, align 8
  %32 = load i8, ptr %31, align 1
  %33 = sext i8 %32 to i32
  %34 = icmp eq i32 %33, 44
  br i1 %34, label %43, label %35

35:                                               ; preds = %30
  %36 = load ptr, ptr %4, align 8
  %37 = load i8, ptr %36, align 1
  %38 = sext i8 %37 to i32
  %39 = icmp eq i32 %38, 40
  br i1 %39, label %40, label %50

40:                                               ; preds = %35
  %41 = load i32, ptr %6, align 4
  %42 = icmp eq i32 %41, 0
  br i1 %42, label %43, label %50

43:                                               ; preds = %40, %30
  %44 = load ptr, ptr %4, align 8
  %45 = getelementptr inbounds i8, ptr %44, i64 1
  %46 = load i32, ptr %6, align 4
  %47 = add i32 %46, 1
  store i32 %47, ptr %6, align 4
  %48 = sext i32 %46 to i64
  %49 = getelementptr inbounds [3 x ptr], ptr %5, i64 0, i64 %48
  store ptr %45, ptr %49, align 8
  br label %50

50:                                               ; preds = %43, %40, %35
  br label %51

51:                                               ; preds = %50
  %52 = load ptr, ptr %4, align 8
  %53 = getelementptr inbounds nuw i8, ptr %52, i32 1
  store ptr %53, ptr %4, align 8
  br label %15, !llvm.loop !8

54:                                               ; preds = %28
  %55 = load i32, ptr %6, align 4
  %56 = icmp slt i32 %55, 3
  br i1 %56, label %57, label %70

57:                                               ; preds = %54
  br label %58

58:                                               ; preds = %57
  br i1 true, label %59, label %61

59:                                               ; preds = %58
  %60 = call zeroext i1 @errstart_cold(i32 noundef 21, ptr noundef null) #14
  br i1 %60, label %63, label %67

61:                                               ; preds = %58
  %62 = call zeroext i1 @errstart(i32 noundef 21, ptr noundef null)
  br i1 %62, label %63, label %67

63:                                               ; preds = %61, %59
  %64 = call i32 @errcode(i32 noundef 33685634)
  %65 = load ptr, ptr %3, align 8
  %66 = call i32 (ptr, ...) @errmsg(ptr noundef @.str.1, ptr noundef @.str.2, ptr noundef %65)
  call void @errfinish(ptr noundef @.str.3, i32 noundef 192, ptr noundef @__func__.widget_in)
  br label %67

67:                                               ; preds = %63, %61, %59
  unreachable

68:                                               ; No predecessors!
  br label %69

69:                                               ; preds = %68
  br label %70

70:                                               ; preds = %69, %54
  %71 = call ptr @palloc(i64 noundef 24)
  store ptr %71, ptr %7, align 8
  %72 = getelementptr inbounds [3 x ptr], ptr %5, i64 0, i64 0
  %73 = load ptr, ptr %72, align 16
  %74 = call double @atof(ptr noundef %73) #15
  %75 = load ptr, ptr %7, align 8
  %76 = getelementptr inbounds nuw %struct.WIDGET, ptr %75, i32 0, i32 0
  %77 = getelementptr inbounds nuw %struct.Point, ptr %76, i32 0, i32 0
  store double %74, ptr %77, align 8
  %78 = getelementptr inbounds [3 x ptr], ptr %5, i64 0, i64 1
  %79 = load ptr, ptr %78, align 8
  %80 = call double @atof(ptr noundef %79) #15
  %81 = load ptr, ptr %7, align 8
  %82 = getelementptr inbounds nuw %struct.WIDGET, ptr %81, i32 0, i32 0
  %83 = getelementptr inbounds nuw %struct.Point, ptr %82, i32 0, i32 1
  store double %80, ptr %83, align 8
  %84 = getelementptr inbounds [3 x ptr], ptr %5, i64 0, i64 2
  %85 = load ptr, ptr %84, align 16
  %86 = call double @atof(ptr noundef %85) #15
  %87 = load ptr, ptr %7, align 8
  %88 = getelementptr inbounds nuw %struct.WIDGET, ptr %87, i32 0, i32 1
  store double %86, ptr %88, align 8
  %89 = load ptr, ptr %7, align 8
  %90 = call i64 @PointerGetDatum(ptr noundef %89)
  call void @llvm.lifetime.end.p0(i64 8, ptr %7) #13
  call void @llvm.lifetime.end.p0(i64 4, ptr %6) #13
  call void @llvm.lifetime.end.p0(i64 24, ptr %5) #13
  call void @llvm.lifetime.end.p0(i64 8, ptr %4) #13
  call void @llvm.lifetime.end.p0(i64 8, ptr %3) #13
  ret i64 %90
}