; Function Attrs: nounwind uwtable
define noundef i64 @widget_in(ptr noundef readonly captures(none) %0) local_unnamed_addr #1 {
  %2 = alloca [3 x ptr], align 16
  %3 = getelementptr inbounds nuw i8, ptr %0, i64 32
  %4 = load i64, ptr %3, align 8
  %5 = inttoptr i64 %4 to ptr
  call void @llvm.lifetime.start.p0(i64 24, ptr nonnull %2) #18
  br label %switch.early.test

switch.early.test:                                ; preds = %1, %15
  %.026 = phi ptr [ %5, %1 ], [ %16, %15 ]
  %.01925 = phi i32 [ 0, %1 ], [ %.1, %15 ]
  %6 = load i8, ptr %.026, align 1
  switch i8 %6, label %7 [
    i8 41, label %.critedge
    i8 0, label %.critedge
    i8 44, label %10
  ]

7:                                                ; preds = %switch.early.test
  %8 = icmp eq i8 %6, 40
  %9 = icmp eq i32 %.01925, 0
  %or.cond3 = and i1 %8, %9
  br i1 %or.cond3, label %10, label %15

10:                                               ; preds = %switch.early.test, %7
  %11 = getelementptr inbounds nuw i8, ptr %.026, i64 1
  %12 = add i32 %.01925, 1
  %13 = sext i32 %.01925 to i64
  %14 = getelementptr inbounds [3 x ptr], ptr %2, i64 0, i64 %13
  store ptr %11, ptr %14, align 8
  br label %15

15:                                               ; preds = %7, %10
  %.1 = phi i32 [ %12, %10 ], [ %.01925, %7 ]
  %16 = getelementptr inbounds nuw i8, ptr %.026, i64 1
  %17 = icmp sgt i32 %.1, 2
  br i1 %17, label %21, label %switch.early.test, !llvm.loop !8

.critedge:                                        ; preds = %switch.early.test, %switch.early.test
  %18 = tail call zeroext i1 @errstart_cold(i32 noundef 21, ptr noundef null) #19
  tail call void @llvm.assume(i1 %18)
  %19 = tail call i32 @errcode(i32 noundef 33685634) #18
  %20 = tail call i32 (ptr, ...) @errmsg(ptr noundef nonnull @.str.1, ptr noundef nonnull @.str.2, ptr noundef %5) #18
  tail call void @errfinish(ptr noundef nonnull @.str.3, i32 noundef 192, ptr noundef nonnull @__func__.widget_in) #18
  unreachable

21:                                               ; preds = %15
  %22 = tail call ptr @palloc(i64 noundef 24) #18
  %23 = load ptr, ptr %2, align 16
  %24 = tail call double @strtod(ptr noundef nonnull captures(none) %23, ptr noundef null) #18
  store double %24, ptr %22, align 8
  %25 = getelementptr inbounds nuw i8, ptr %2, i64 8
  %26 = load ptr, ptr %25, align 8
  %27 = tail call double @strtod(ptr noundef nonnull captures(none) %26, ptr noundef null) #18
  %28 = getelementptr inbounds nuw i8, ptr %22, i64 8
  store double %27, ptr %28, align 8
  %29 = getelementptr inbounds nuw i8, ptr %2, i64 16
  %30 = load ptr, ptr %29, align 16
  %31 = tail call double @strtod(ptr noundef nonnull captures(none) %30, ptr noundef null) #18
  %32 = getelementptr inbounds nuw i8, ptr %22, i64 16
  store double %31, ptr %32, align 8
  %33 = ptrtoint ptr %22 to i64
  call void @llvm.lifetime.end.p0(i64 24, ptr nonnull %2) #18
  ret i64 %33
}